target datalayout = "e-m:e-p270:32:32-p271:32:32-p272:64:64-i64:64-i128:128-f80:128-n8:16:32:64-S128"
target triple = "x86_64-pc-linux-gnu"

%class.OopHandle = type { ptr }
%class.MemoryManager = type <{ ptr, [10 x ptr], i32, [4 x i8], ptr, %class.OopHandle, i8, [7 x i8] }>
%class.GCMemoryManager = type <{ %class.MemoryManager.base, [7 x i8], i64, %class.elapsedTimer, ptr, ptr, ptr, i32, i8, [10 x i8], i8 }>
%class.MemoryManager.base = type <{ ptr, [10 x ptr], i32, [4 x i8], ptr, %class.OopHandle, i8 }>
%class.elapsedTimer = type <{ i64, i64, i8, [7 x i8] }>

@_ZTV13MemoryManager = hidden unnamed_addr constant { [4 x ptr] } { [4 x ptr] [ptr null, ptr null, ptr @_ZN13MemoryManager27get_memory_manager_instanceEP10JavaThread, ptr @_ZN13MemoryManager20is_gc_memory_managerEv] }, align 8
@_ZTV15GCMemoryManager = linkonce_odr hidden unnamed_addr constant { [4 x ptr] } { [4 x ptr] [ptr null, ptr null, ptr @_ZN13MemoryManager27get_memory_manager_instanceEP10JavaThread, ptr @_ZN15GCMemoryManager20is_gc_memory_managerEv] }, comdat, align 8
@.str.9 = private unnamed_addr constant [21 x i8] c"GCMemoryManager_lock\00", align 1

; Function Attrs: mustprogress nounwind uwtable
define linkonce_odr hidden noundef zeroext i1 @_ZltN5Mutex4RankES0_(i32 noundef %0, i32 noundef %1) #1 comdat {
  %3 = alloca i32, align 4
  %4 = alloca i32, align 4
  store i32 %0, ptr %3, align 4
  store i32 %1, ptr %4, align 4
  %5 = load i32, ptr %3, align 4
  %6 = load i32, ptr %4, align 4
  %7 = icmp slt i32 %5, %6
  ret i1 %7
}

; Function Attrs: mustprogress nounwind uwtable
define linkonce_odr hidden noundef zeroext i1 @_ZgtN5Mutex4RankES0_(i32 noundef %0, i32 noundef %1) #1 comdat {
  %3 = alloca i32, align 4
  %4 = alloca i32, align 4
  store i32 %0, ptr %3, align 4
  store i32 %1, ptr %4, align 4
  %5 = load i32, ptr %4, align 4
  %6 = load i32, ptr %3, align 4
  %7 = call noundef zeroext i1 @_ZltN5Mutex4RankES0_(i32 noundef %5, i32 noundef %6)
  ret i1 %7
}

; Function Attrs: mustprogress nounwind uwtable
define linkonce_odr hidden void @_ZN12elapsedTimer5resetEv(ptr noundef nonnull align 8 dereferenceable(17) %0) #1 comdat align 2 {
  %2 = alloca ptr, align 8
  store ptr %0, ptr %2, align 8
  %3 = load ptr, ptr %2, align 8
  %4 = getelementptr inbounds %class.elapsedTimer, ptr %3, i32 0, i32 0
  store i64 0, ptr %4, align 8
  ret void
}

; Function Attrs: mustprogress nounwind uwtable
define linkonce_odr hidden void @_ZN9OopHandleC2Ev(ptr noundef nonnull align 8 dereferenceable(8) %0) unnamed_addr #1 comdat align 2 {
  %2 = alloca ptr, align 8
  store ptr %0, ptr %2, align 8
  %3 = load ptr, ptr %2, align 8
  %4 = getelementptr inbounds %class.OopHandle, ptr %3, i32 0, i32 0
  store ptr null, ptr %4, align 8
  ret void
}

; Function Attrs: mustprogress nounwind uwtable
define linkonce_odr hidden void @_ZN5MutexC2ENS_4RankEPKc(ptr noundef nonnull align 8 dereferenceable(104) %0, i32 noundef %1, ptr noundef %2) unnamed_addr #1 comdat align 2 {
  %4 = alloca ptr, align 8
  %5 = alloca i32, align 4
  %6 = alloca ptr, align 8
  store ptr %0, ptr %4, align 8
  store i32 %1, ptr %5, align 4
  store ptr %2, ptr %6, align 8
  %7 = load ptr, ptr %4, align 8
  %8 = load i32, ptr %5, align 4
  %9 = load ptr, ptr %6, align 8
  %10 = load i32, ptr %5, align 4
  %11 = call noundef zeroext i1 @_ZgtN5Mutex4RankES0_(i32 noundef %10, i32 noundef 21)
  %12 = select i1 %11, i1 false, i1 true
  call void @_ZN5MutexC2ENS_4RankEPKcb(ptr noundef nonnull align 8 dereferenceable(104) %7, i32 noundef %8, ptr noundef %9, i1 noundef zeroext %12)
  ret void
}

; Function Attrs: mustprogress nounwind uwtable
define linkonce_odr hidden void @_ZN12elapsedTimerC2Ev(ptr noundef nonnull align 8 dereferenceable(17) %0) unnamed_addr #1 comdat align 2 {
  %2 = alloca ptr, align 8
  store ptr %0, ptr %2, align 8
  %3 = load ptr, ptr %2, align 8
  %4 = getelementptr inbounds %class.elapsedTimer, ptr %3, i32 0, i32 2
  store i8 0, ptr %4, align 8
  call void @_ZN12elapsedTimer5resetEv(ptr noundef nonnull align 8 dereferenceable(17) %3)
  ret void
}

; Function Attrs: mustprogress nounwind uwtable
define hidden void @_ZN13MemoryManagerC2EPKc(ptr noundef nonnull align 8 dereferenceable(113) %0, ptr noundef %1) unnamed_addr #1 align 2 {
  %3 = alloca ptr, align 8
  %4 = alloca ptr, align 8
  store ptr %0, ptr %3, align 8
  store ptr %1, ptr %4, align 8
  %5 = load ptr, ptr %3, align 8
  store ptr getelementptr inbounds inrange(-16, 16) ({ [4 x ptr] }, ptr @_ZTV13MemoryManager, i32 0, i32 0, i32 2), ptr %5, align 8
  %6 = getelementptr inbounds %class.MemoryManager, ptr %5, i32 0, i32 1
  call void @llvm.memset.p0.i64(ptr align 8 %6, i8 0, i64 80, i1 false)
  %7 = getelementptr inbounds %class.MemoryManager, ptr %5, i32 0, i32 2
  store i32 0, ptr %7, align 8
  %8 = getelementptr inbounds %class.MemoryManager, ptr %5, i32 0, i32 4
  %9 = load ptr, ptr %4, align 8
  store ptr %9, ptr %8, align 8
  %10 = getelementptr inbounds %class.MemoryManager, ptr %5, i32 0, i32 5
  call void @_ZN9OopHandleC2Ev(ptr noundef nonnull align 8 dereferenceable(8) %10)
  %11 = getelementptr inbounds %class.MemoryManager, ptr %5, i32 0, i32 6
  store volatile i8 0, ptr %11, align 8
  ret void
}

; Function Attrs: mustprogress nounwind uwtable
define hidden void @_ZN15GCMemoryManagerC2EPKc(ptr noundef nonnull align 8 dereferenceable(191) %0, ptr noundef %1) unnamed_addr #1 align 2 {
  %3 = alloca i64, align 8
  %4 = alloca i8, align 1
  %5 = alloca i64, align 8
  %6 = alloca ptr, align 8
  %7 = alloca ptr, align 8
  store ptr %0, ptr %6, align 8
  store ptr %1, ptr %7, align 8
  %8 = load ptr, ptr %6, align 8
  %9 = load ptr, ptr %7, align 8
  call void @_ZN13MemoryManagerC2EPKc(ptr noundef nonnull align 8 dereferenceable(113) %8, ptr noundef %9)
  store ptr getelementptr inbounds inrange(-16, 16) ({ [4 x ptr] }, ptr @_ZTV15GCMemoryManager, i32 0, i32 0, i32 2), ptr %8, align 8
  %10 = getelementptr inbounds %class.GCMemoryManager, ptr %8, i32 0, i32 3
  call void @_ZN12elapsedTimerC2Ev(ptr noundef nonnull align 8 dereferenceable(17) %10)
  %11 = getelementptr inbounds %class.GCMemoryManager, ptr %8, i32 0, i32 2
  store i64 0, ptr %11, align 8
  %12 = getelementptr inbounds %class.GCMemoryManager, ptr %8, i32 0, i32 4
  store ptr null, ptr %12, align 8
  store i64 104, ptr %5, align 8
  %13 = load i64, ptr %5, align 8
  store i64 %13, ptr %3, align 8
  store i8 22, ptr %4, align 1
  %14 = load i64, ptr %3, align 8
  %15 = load i8, ptr %4, align 1
  %16 = call noundef ptr @_Z12AllocateHeapm8MEMFLAGSN17AllocFailStrategy13AllocFailEnumE(i64 noundef %14, i8 noundef zeroext %15, i32 noundef 0) #9
  call void @_ZN5MutexC2ENS_4RankEPKc(ptr noundef nonnull align 8 dereferenceable(104) %16, i32 noundef 21, ptr noundef @.str.9)
  %17 = getelementptr inbounds %class.GCMemoryManager, ptr %8, i32 0, i32 5
  store ptr %16, ptr %17, align 8
  %18 = getelementptr inbounds %class.GCMemoryManager, ptr %8, i32 0, i32 6
  store ptr null, ptr %18, align 8
  %19 = getelementptr inbounds %class.GCMemoryManager, ptr %8, i32 0, i32 7
  store i32 1, ptr %19, align 8
  %20 = getelementptr inbounds %class.GCMemoryManager, ptr %8, i32 0, i32 8
  store volatile i8 0, ptr %20, align 4
  ret void
}