; Function Attrs: mustprogress nounwind uwtable
define hidden void @_ZN15GCMemoryManagerC2EPKc(ptr noundef nonnull align 8 dereferenceable(191) %0, ptr noundef %1) unnamed_addr #2 align 2 {
  %3 = getelementptr inbounds i8, ptr %0, i64 8
  %4 = getelementptr inbounds i8, ptr %0, i64 96
  tail call void @llvm.memset.p0.i64(ptr noundef nonnull align 8 dereferenceable(84) %3, i8 0, i64 84, i1 false)
  store ptr %1, ptr %4, align 8
  %5 = getelementptr inbounds i8, ptr %0, i64 104
  store ptr null, ptr %5, align 8
  %6 = getelementptr inbounds i8, ptr %0, i64 112
  store volatile i8 0, ptr %6, align 8
  store ptr getelementptr inbounds inrange(-16, 16) (i8, ptr @_ZTV15GCMemoryManager, i64 16), ptr %0, align 8
  %7 = getelementptr inbounds i8, ptr %0, i64 144
  store i8 0, ptr %7, align 8
  %8 = getelementptr inbounds i8, ptr %0, i64 120
  %9 = getelementptr inbounds i8, ptr %0, i64 152
  store ptr null, ptr %9, align 8
  tail call void @llvm.memset.p0.i64(ptr noundef nonnull align 8 dereferenceable(16) %8, i8 0, i64 16, i1 false)
  %10 = tail call noundef ptr @_Z12AllocateHeapm8MEMFLAGSN17AllocFailStrategy13AllocFailEnumE(i64 noundef 104, i8 noundef zeroext 22, i32 noundef 0) #13
  tail call void @_ZN5MutexC2ENS_4RankEPKcb(ptr noundef nonnull align 8 dereferenceable(104) %10, i32 noundef 21, ptr noundef nonnull @.str.9, i1 noundef zeroext true) #13
  %11 = getelementptr inbounds i8, ptr %0, i64 160
  store ptr %10, ptr %11, align 8
  %12 = getelementptr inbounds i8, ptr %0, i64 168
  store ptr null, ptr %12, align 8
  %13 = getelementptr inbounds i8, ptr %0, i64 176
  store i32 1, ptr %13, align 8
  %14 = getelementptr inbounds i8, ptr %0, i64 180
  store volatile i8 0, ptr %14, align 4
  ret void
}